target datalayout = "e-m:e-p270:32:32-p271:32:32-p272:64:64-i64:64-i128:128-f80:128-n8:16:32:64-S128"
target triple = "x86_64-pc-linux-gnu"

%struct.color_t = type { i32, i32, i32, i32 }
%struct.pointf_s = type { double, double }
%struct.GVJ_s = type { ptr, ptr, ptr, ptr, ptr, ptr, i32, ptr, ptr, ptr, ptr, i64, i64, ptr, i32, %struct.gvplugin_active_render_s, %struct.gvplugin_active_device_s, %struct.gvplugin_active_loadimage_t, ptr, %struct.pointf_s, i8, ptr, i32, ptr, i8, ptr, i32, i32, i32, %struct.point, %struct.point, %struct.point, %struct.point, %struct.point, i32, %struct.boxf, %struct.pointf_s, %struct.boxf, %struct.boxf, %struct.pointf_s, %struct.pointf_s, double, i32, %struct.pointf_s, %struct.boxf, %struct.pointf_s, %struct.pointf_s, i32, i32, %struct.box, %struct.box, %struct.pointf_s, %struct.pointf_s, %struct.pointf_s, i8, i8, i8, i8, i8, i8, %struct.pointf_s, %struct.pointf_s, ptr, ptr, ptr, ptr, ptr, ptr, i64, ptr }
%struct.gvplugin_active_render_s = type { ptr, i32, ptr, ptr }
%struct.gvplugin_active_device_s = type { ptr, i32, ptr, ptr }
%struct.gvplugin_active_loadimage_t = type { ptr, i32, ptr }
%struct.point = type { i32, i32 }
%struct.boxf = type { %struct.pointf_s, %struct.pointf_s }
%struct.box = type { %struct.point, %struct.point }

@.str.8 = private unnamed_addr constant [7 x i8] c"\1B[3%um\00", align 1
@.str.9 = private unnamed_addr constant [17 x i8] c"\1B[38;2;%u;%u;%um\00", align 1
@.str.10 = private unnamed_addr constant [7 x i8] c"\1B[4%um\00", align 1
@.str.11 = private unnamed_addr constant [17 x i8] c"\1B[48;2;%u;%u;%um\00", align 1
@.str.12 = private unnamed_addr constant [8 x i8] c"\E2\96\80\1B[0m\00", align 1
@.str.13 = private unnamed_addr constant [2 x i8] c"\0A\00", align 1

; Function Attrs: nounwind uwtable
define internal i32 @distance(i64 %0, i64 %1, i32 noundef %2, i32 noundef %3, i32 noundef %4) #0 {
  %6 = alloca %struct.color_t, align 4
  %7 = alloca i32, align 4
  %8 = alloca i32, align 4
  %9 = alloca i32, align 4
  %10 = alloca i32, align 4
  %11 = getelementptr inbounds nuw { i64, i64 }, ptr %6, i32 0, i32 0
  store i64 %0, ptr %11, align 4
  %12 = getelementptr inbounds nuw { i64, i64 }, ptr %6, i32 0, i32 1
  store i64 %1, ptr %12, align 4
  store i32 %2, ptr %7, align 4, !tbaa !8
  store i32 %3, ptr %8, align 4, !tbaa !8
  store i32 %4, ptr %9, align 4, !tbaa !8
  call void @llvm.lifetime.start.p0(i64 4, ptr %10) #5
  store i32 0, ptr %10, align 4, !tbaa !8
  %13 = load i32, ptr %7, align 4, !tbaa !8
  %14 = getelementptr inbounds nuw %struct.color_t, ptr %6, i32 0, i32 1
  %15 = load i32, ptr %14, align 4, !tbaa !43
  %16 = icmp ugt i32 %13, %15
  br i1 %16, label %17, label %22

17:                                               ; preds = %5
  %18 = load i32, ptr %7, align 4, !tbaa !8
  %19 = getelementptr inbounds nuw %struct.color_t, ptr %6, i32 0, i32 1
  %20 = load i32, ptr %19, align 4, !tbaa !43
  %21 = sub i32 %18, %20
  br label %27

22:                                               ; preds = %5
  %23 = getelementptr inbounds nuw %struct.color_t, ptr %6, i32 0, i32 1
  %24 = load i32, ptr %23, align 4, !tbaa !43
  %25 = load i32, ptr %7, align 4, !tbaa !8
  %26 = sub i32 %24, %25
  br label %27

27:                                               ; preds = %22, %17
  %28 = phi i32 [ %21, %17 ], [ %26, %22 ]
  %29 = load i32, ptr %10, align 4, !tbaa !8
  %30 = add i32 %29, %28
  store i32 %30, ptr %10, align 4, !tbaa !8
  %31 = load i32, ptr %8, align 4, !tbaa !8
  %32 = getelementptr inbounds nuw %struct.color_t, ptr %6, i32 0, i32 2
  %33 = load i32, ptr %32, align 4, !tbaa !44
  %34 = icmp ugt i32 %31, %33
  br i1 %34, label %35, label %40

35:                                               ; preds = %27
  %36 = load i32, ptr %8, align 4, !tbaa !8
  %37 = getelementptr inbounds nuw %struct.color_t, ptr %6, i32 0, i32 2
  %38 = load i32, ptr %37, align 4, !tbaa !44
  %39 = sub i32 %36, %38
  br label %45

40:                                               ; preds = %27
  %41 = getelementptr inbounds nuw %struct.color_t, ptr %6, i32 0, i32 2
  %42 = load i32, ptr %41, align 4, !tbaa !44
  %43 = load i32, ptr %8, align 4, !tbaa !8
  %44 = sub i32 %42, %43
  br label %45

45:                                               ; preds = %40, %35
  %46 = phi i32 [ %39, %35 ], [ %44, %40 ]
  %47 = load i32, ptr %10, align 4, !tbaa !8
  %48 = add i32 %47, %46
  store i32 %48, ptr %10, align 4, !tbaa !8
  %49 = load i32, ptr %9, align 4, !tbaa !8
  %50 = getelementptr inbounds nuw %struct.color_t, ptr %6, i32 0, i32 3
  %51 = load i32, ptr %50, align 4, !tbaa !45
  %52 = icmp ugt i32 %49, %51
  br i1 %52, label %53, label %58

53:                                               ; preds = %45
  %54 = load i32, ptr %9, align 4, !tbaa !8
  %55 = getelementptr inbounds nuw %struct.color_t, ptr %6, i32 0, i32 3
  %56 = load i32, ptr %55, align 4, !tbaa !45
  %57 = sub i32 %54, %56
  br label %63

58:                                               ; preds = %45
  %59 = getelementptr inbounds nuw %struct.color_t, ptr %6, i32 0, i32 3
  %60 = load i32, ptr %59, align 4, !tbaa !45
  %61 = load i32, ptr %9, align 4, !tbaa !8
  %62 = sub i32 %60, %61
  br label %63

63:                                               ; preds = %58, %53
  %64 = phi i32 [ %57, %53 ], [ %62, %58 ]
  %65 = load i32, ptr %10, align 4, !tbaa !8
  %66 = add i32 %65, %64
  store i32 %66, ptr %10, align 4, !tbaa !8
  %67 = load i32, ptr %10, align 4, !tbaa !8
  call void @llvm.lifetime.end.p0(i64 4, ptr %10) #5
  ret i32 %67
}

; Function Attrs: nounwind uwtable
define internal i32 @get_color(i32 noundef %0, i32 noundef %1, i32 noundef %2) #0 {
  %4 = alloca i32, align 4
  %5 = alloca i32, align 4
  %6 = alloca i32, align 4
  %7 = alloca i32, align 4
  %8 = alloca i32, align 4
  %9 = alloca i64, align 8
  %10 = alloca i32, align 4
  store i32 %0, ptr %4, align 4, !tbaa !8
  store i32 %1, ptr %5, align 4, !tbaa !8
  store i32 %2, ptr %6, align 4, !tbaa !8
  call void @llvm.lifetime.start.p0(i64 4, ptr %7) #5
  store i32 0, ptr %7, align 4, !tbaa !8
  call void @llvm.lifetime.start.p0(i64 4, ptr %8) #5
  store i32 -1, ptr %8, align 4, !tbaa !8
  call void @llvm.lifetime.start.p0(i64 8, ptr %9) #5
  store i64 0, ptr %9, align 8, !tbaa !39
  br label %11

11:                                               ; preds = %36, %3
  %12 = load i64, ptr %9, align 8, !tbaa !39
  %13 = icmp ult i64 %12, 8
  br i1 %13, label %15, label %14

14:                                               ; preds = %11
  call void @llvm.lifetime.end.p0(i64 8, ptr %9) #5
  br label %39

15:                                               ; preds = %11
  call void @llvm.lifetime.start.p0(i64 4, ptr %10) #5
  %16 = load i64, ptr %9, align 8, !tbaa !39
  %17 = getelementptr inbounds nuw [8 x %struct.color_t], ptr @COLORS, i64 0, i64 %16
  %18 = load i32, ptr %4, align 4, !tbaa !8
  %19 = load i32, ptr %5, align 4, !tbaa !8
  %20 = load i32, ptr %6, align 4, !tbaa !8
  %21 = getelementptr inbounds nuw { i64, i64 }, ptr %17, i32 0, i32 0
  %22 = load i64, ptr %21, align 16
  %23 = getelementptr inbounds nuw { i64, i64 }, ptr %17, i32 0, i32 1
  %24 = load i64, ptr %23, align 8
  %25 = call i32 @distance(i64 %22, i64 %24, i32 noundef %18, i32 noundef %19, i32 noundef %20)
  store i32 %25, ptr %10, align 4, !tbaa !8
  %26 = load i32, ptr %10, align 4, !tbaa !8
  %27 = load i32, ptr %8, align 4, !tbaa !8
  %28 = icmp ult i32 %26, %27
  br i1 %28, label %29, label %35

29:                                               ; preds = %15
  %30 = load i32, ptr %10, align 4, !tbaa !8
  store i32 %30, ptr %8, align 4, !tbaa !8
  %31 = load i64, ptr %9, align 8, !tbaa !39
  %32 = getelementptr inbounds nuw [8 x %struct.color_t], ptr @COLORS, i64 0, i64 %31
  %33 = getelementptr inbounds nuw %struct.color_t, ptr %32, i32 0, i32 0
  %34 = load i32, ptr %33, align 16, !tbaa !40
  store i32 %34, ptr %7, align 4, !tbaa !8
  br label %35

35:                                               ; preds = %29, %15
  call void @llvm.lifetime.end.p0(i64 4, ptr %10) #5
  br label %36

36:                                               ; preds = %35
  %37 = load i64, ptr %9, align 8, !tbaa !39
  %38 = add i64 %37, 1
  store i64 %38, ptr %9, align 8, !tbaa !39
  br label %11, !llvm.loop !42

39:                                               ; preds = %14
  %40 = load i32, ptr %7, align 4, !tbaa !8
  call void @llvm.lifetime.end.p0(i64 4, ptr %8) #5
  call void @llvm.lifetime.end.p0(i64 4, ptr %7) #5
  ret i32 %40
}

; Function Attrs: nounwind uwtable
define internal void @process(ptr noundef %0, i32 noundef %1) #0 {
  %3 = alloca ptr, align 8
  %4 = alloca i32, align 4
  %5 = alloca ptr, align 8
  %6 = alloca i32, align 4
  %7 = alloca i32, align 4
  %8 = alloca i32, align 4
  %9 = alloca i32, align 4
  %10 = alloca i32, align 4
  %11 = alloca i32, align 4
  %12 = alloca i32, align 4
  %13 = alloca i32, align 4
  %14 = alloca i32, align 4
  %15 = alloca i32, align 4
  %16 = alloca i32, align 4
  %17 = alloca i32, align 4
  %18 = alloca i32, align 4
  store ptr %0, ptr %3, align 8, !tbaa !3
  store i32 %1, ptr %4, align 4, !tbaa !8
  call void @llvm.lifetime.start.p0(i64 8, ptr %5) #5
  %19 = load ptr, ptr %3, align 8, !tbaa !3
  %20 = getelementptr inbounds nuw %struct.GVJ_s, ptr %19, i32 0, i32 25
  %21 = load ptr, ptr %20, align 8, !tbaa !10
  store ptr %21, ptr %5, align 8, !tbaa !32
  call void @llvm.lifetime.start.p0(i64 4, ptr %6) #5
  store i32 0, ptr %6, align 4, !tbaa !8
  br label %22

22:                                               ; preds = %141, %2
  %23 = load i32, ptr %6, align 4, !tbaa !8
  %24 = load ptr, ptr %3, align 8, !tbaa !3
  %25 = getelementptr inbounds nuw %struct.GVJ_s, ptr %24, i32 0, i32 48
  %26 = load i32, ptr %25, align 4, !tbaa !33
  %27 = icmp ult i32 %23, %26
  br i1 %27, label %29, label %28

28:                                               ; preds = %22
  store i32 2, ptr %7, align 4
  call void @llvm.lifetime.end.p0(i64 4, ptr %6) #5
  br label %144

29:                                               ; preds = %22
  call void @llvm.lifetime.start.p0(i64 4, ptr %8) #5
  store i32 0, ptr %8, align 4, !tbaa !8
  br label %30

30:                                               ; preds = %136, %29
  %31 = load i32, ptr %8, align 4, !tbaa !8
  %32 = load ptr, ptr %3, align 8, !tbaa !3
  %33 = getelementptr inbounds nuw %struct.GVJ_s, ptr %32, i32 0, i32 47
  %34 = load i32, ptr %33, align 8, !tbaa !34
  %35 = icmp ult i32 %31, %34
  br i1 %35, label %37, label %36

36:                                               ; preds = %30
  store i32 5, ptr %7, align 4
  call void @llvm.lifetime.end.p0(i64 4, ptr %8) #5
  br label %139

37:                                               ; preds = %30
  call void @llvm.lifetime.start.p0(i64 4, ptr %9) #5
  %38 = load i32, ptr %6, align 4, !tbaa !8
  %39 = load ptr, ptr %3, align 8, !tbaa !3
  %40 = getelementptr inbounds nuw %struct.GVJ_s, ptr %39, i32 0, i32 47
  %41 = load i32, ptr %40, align 8, !tbaa !34
  %42 = mul i32 %38, %41
  %43 = mul i32 %42, 4
  %44 = load i32, ptr %8, align 4, !tbaa !8
  %45 = mul i32 %44, 4
  %46 = add i32 %43, %45
  store i32 %46, ptr %9, align 4, !tbaa !8
  call void @llvm.lifetime.start.p0(i64 4, ptr %10) #5
  %47 = load ptr, ptr %5, align 8, !tbaa !32
  %48 = load i32, ptr %9, align 4, !tbaa !8
  %49 = add i32 %48, 2
  %50 = zext i32 %49 to i64
  %51 = getelementptr inbounds nuw i8, ptr %47, i64 %50
  %52 = load i8, ptr %51, align 1, !tbaa !35
  %53 = zext i8 %52 to i32
  store i32 %53, ptr %10, align 4, !tbaa !8
  call void @llvm.lifetime.start.p0(i64 4, ptr %11) #5
  %54 = load ptr, ptr %5, align 8, !tbaa !32
  %55 = load i32, ptr %9, align 4, !tbaa !8
  %56 = add i32 %55, 1
  %57 = zext i32 %56 to i64
  %58 = getelementptr inbounds nuw i8, ptr %54, i64 %57
  %59 = load i8, ptr %58, align 1, !tbaa !35
  %60 = zext i8 %59 to i32
  store i32 %60, ptr %11, align 4, !tbaa !8
  call void @llvm.lifetime.start.p0(i64 4, ptr %12) #5
  %61 = load ptr, ptr %5, align 8, !tbaa !32
  %62 = load i32, ptr %9, align 4, !tbaa !8
  %63 = zext i32 %62 to i64
  %64 = getelementptr inbounds nuw i8, ptr %61, i64 %63
  %65 = load i8, ptr %64, align 1, !tbaa !35
  %66 = zext i8 %65 to i32
  store i32 %66, ptr %12, align 4, !tbaa !8
  %67 = load i32, ptr %4, align 4, !tbaa !8
  %68 = icmp eq i32 %67, 3
  br i1 %68, label %69, label %76

69:                                               ; preds = %37
  call void @llvm.lifetime.start.p0(i64 4, ptr %13) #5
  %70 = load i32, ptr %10, align 4, !tbaa !8
  %71 = load i32, ptr %11, align 4, !tbaa !8
  %72 = load i32, ptr %12, align 4, !tbaa !8
  %73 = call i32 @get_color(i32 noundef %70, i32 noundef %71, i32 noundef %72)
  store i32 %73, ptr %13, align 4, !tbaa !8
  %74 = load ptr, ptr %3, align 8, !tbaa !3
  %75 = load i32, ptr %13, align 4, !tbaa !8
  call void (ptr, ptr, ...) @gvprintf(ptr noundef %74, ptr noundef @.str.8, i32 noundef %75)
  call void @llvm.lifetime.end.p0(i64 4, ptr %13) #5
  br label %81

76:                                               ; preds = %37
  %77 = load ptr, ptr %3, align 8, !tbaa !3
  %78 = load i32, ptr %10, align 4, !tbaa !8
  %79 = load i32, ptr %11, align 4, !tbaa !8
  %80 = load i32, ptr %12, align 4, !tbaa !8
  call void (ptr, ptr, ...) @gvprintf(ptr noundef %77, ptr noundef @.str.9, i32 noundef %78, i32 noundef %79, i32 noundef %80)
  br label %81

81:                                               ; preds = %76, %69
  call void @llvm.lifetime.end.p0(i64 4, ptr %12) #5
  call void @llvm.lifetime.end.p0(i64 4, ptr %11) #5
  call void @llvm.lifetime.end.p0(i64 4, ptr %10) #5
  call void @llvm.lifetime.end.p0(i64 4, ptr %9) #5
  call void @llvm.lifetime.start.p0(i64 4, ptr %14) #5
  store i32 0, ptr %14, align 4, !tbaa !8
  call void @llvm.lifetime.start.p0(i64 4, ptr %15) #5
  store i32 0, ptr %15, align 4, !tbaa !8
  call void @llvm.lifetime.start.p0(i64 4, ptr %16) #5
  store i32 0, ptr %16, align 4, !tbaa !8
  %82 = load i32, ptr %6, align 4, !tbaa !8
  %83 = add i32 %82, 1
  %84 = load ptr, ptr %3, align 8, !tbaa !3
  %85 = getelementptr inbounds nuw %struct.GVJ_s, ptr %84, i32 0, i32 48
  %86 = load i32, ptr %85, align 4, !tbaa !33
  %87 = icmp ult i32 %83, %86
  br i1 %87, label %88, label %119

88:                                               ; preds = %81
  call void @llvm.lifetime.start.p0(i64 4, ptr %17) #5
  %89 = load i32, ptr %6, align 4, !tbaa !8
  %90 = add i32 %89, 1
  %91 = load ptr, ptr %3, align 8, !tbaa !3
  %92 = getelementptr inbounds nuw %struct.GVJ_s, ptr %91, i32 0, i32 47
  %93 = load i32, ptr %92, align 8, !tbaa !34
  %94 = mul i32 %90, %93
  %95 = mul i32 %94, 4
  %96 = load i32, ptr %8, align 4, !tbaa !8
  %97 = mul i32 %96, 4
  %98 = add i32 %95, %97
  store i32 %98, ptr %17, align 4, !tbaa !8
  %99 = load ptr, ptr %5, align 8, !tbaa !32
  %100 = load i32, ptr %17, align 4, !tbaa !8
  %101 = add i32 %100, 2
  %102 = zext i32 %101 to i64
  %103 = getelementptr inbounds nuw i8, ptr %99, i64 %102
  %104 = load i8, ptr %103, align 1, !tbaa !35
  %105 = zext i8 %104 to i32
  store i32 %105, ptr %14, align 4, !tbaa !8
  %106 = load ptr, ptr %5, align 8, !tbaa !32
  %107 = load i32, ptr %17, align 4, !tbaa !8
  %108 = add i32 %107, 1
  %109 = zext i32 %108 to i64
  %110 = getelementptr inbounds nuw i8, ptr %106, i64 %109
  %111 = load i8, ptr %110, align 1, !tbaa !35
  %112 = zext i8 %111 to i32
  store i32 %112, ptr %15, align 4, !tbaa !8
  %113 = load ptr, ptr %5, align 8, !tbaa !32
  %114 = load i32, ptr %17, align 4, !tbaa !8
  %115 = zext i32 %114 to i64
  %116 = getelementptr inbounds nuw i8, ptr %113, i64 %115
  %117 = load i8, ptr %116, align 1, !tbaa !35
  %118 = zext i8 %117 to i32
  store i32 %118, ptr %16, align 4, !tbaa !8
  call void @llvm.lifetime.end.p0(i64 4, ptr %17) #5
  br label %119

119:                                              ; preds = %88, %81
  %120 = load i32, ptr %4, align 4, !tbaa !8
  %121 = icmp eq i32 %120, 3
  br i1 %121, label %122, label %129

122:                                              ; preds = %119
  call void @llvm.lifetime.start.p0(i64 4, ptr %18) #5
  %123 = load i32, ptr %14, align 4, !tbaa !8
  %124 = load i32, ptr %15, align 4, !tbaa !8
  %125 = load i32, ptr %16, align 4, !tbaa !8
  %126 = call i32 @get_color(i32 noundef %123, i32 noundef %124, i32 noundef %125)
  store i32 %126, ptr %18, align 4, !tbaa !8
  %127 = load ptr, ptr %3, align 8, !tbaa !3
  %128 = load i32, ptr %18, align 4, !tbaa !8
  call void (ptr, ptr, ...) @gvprintf(ptr noundef %127, ptr noundef @.str.10, i32 noundef %128)
  call void @llvm.lifetime.end.p0(i64 4, ptr %18) #5
  br label %134

129:                                              ; preds = %119
  %130 = load ptr, ptr %3, align 8, !tbaa !3
  %131 = load i32, ptr %14, align 4, !tbaa !8
  %132 = load i32, ptr %15, align 4, !tbaa !8
  %133 = load i32, ptr %16, align 4, !tbaa !8
  call void (ptr, ptr, ...) @gvprintf(ptr noundef %130, ptr noundef @.str.11, i32 noundef %131, i32 noundef %132, i32 noundef %133)
  br label %134

134:                                              ; preds = %129, %122
  call void @llvm.lifetime.end.p0(i64 4, ptr %16) #5
  call void @llvm.lifetime.end.p0(i64 4, ptr %15) #5
  call void @llvm.lifetime.end.p0(i64 4, ptr %14) #5
  %135 = load ptr, ptr %3, align 8, !tbaa !3
  call void (ptr, ptr, ...) @gvprintf(ptr noundef %135, ptr noundef @.str.12)
  br label %136

136:                                              ; preds = %134
  %137 = load i32, ptr %8, align 4, !tbaa !8
  %138 = add i32 %137, 1
  store i32 %138, ptr %8, align 4, !tbaa !8
  br label %30, !llvm.loop !36

139:                                              ; preds = %36
  %140 = load ptr, ptr %3, align 8, !tbaa !3
  call void (ptr, ptr, ...) @gvprintf(ptr noundef %140, ptr noundef @.str.13)
  br label %141

141:                                              ; preds = %139
  %142 = load i32, ptr %6, align 4, !tbaa !8
  %143 = add i32 %142, 2
  store i32 %143, ptr %6, align 4, !tbaa !8
  br label %22, !llvm.loop !38

144:                                              ; preds = %28
  call void @llvm.lifetime.end.p0(i64 8, ptr %5) #5
  ret void
}