; Function Attrs: nounwind uwtable
define internal fastcc void @process(ptr noundef %0, i32 noundef range(i32 3, 25) %1) unnamed_addr #0 {
  %3 = getelementptr inbounds nuw i8, ptr %0, i64 272
  %4 = load ptr, ptr %3, align 8, !tbaa !3
  %5 = getelementptr inbounds nuw i8, ptr %0, i64 580
  %6 = load i32, ptr %5, align 4, !tbaa !30
  %.not = icmp eq i32 %6, 0
  br i1 %.not, label %._crit_edge70, label %.preheader67.lr.ph

.preheader67.lr.ph:                               ; preds = %2
  %7 = getelementptr inbounds nuw i8, ptr %0, i64 576
  %8 = icmp eq i32 %1, 3
  br label %.preheader67

.preheader67:                                     ; preds = %.preheader67.lr.ph, %._crit_edge
  %.069 = phi i32 [ 0, %.preheader67.lr.ph ], [ %11, %._crit_edge ]
  %9 = load i32, ptr %7, align 8, !tbaa !31
  %.not71 = icmp eq i32 %9, 0
  br i1 %.not71, label %._crit_edge, label %.lr.ph

.lr.ph:                                           ; preds = %.preheader67
  %10 = or disjoint i32 %.069, 1
  br label %14

._crit_edge70:                                    ; preds = %._crit_edge, %2
  ret void

._crit_edge:                                      ; preds = %100, %.preheader67
  tail call void (ptr, ptr, ...) @gvprintf(ptr noundef nonnull %0, ptr noundef nonnull @.str.13) #4
  %11 = add i32 %.069, 2
  %12 = load i32, ptr %5, align 4, !tbaa !30
  %13 = icmp ult i32 %11, %12
  br i1 %13, label %.preheader67, label %._crit_edge70, !llvm.loop !32

14:                                               ; preds = %.lr.ph, %100
  %15 = phi i32 [ %9, %.lr.ph ], [ %102, %100 ]
  %.05168 = phi i32 [ 0, %.lr.ph ], [ %101, %100 ]
  %16 = mul i32 %15, %.069
  %17 = add i32 %16, %.05168
  %18 = shl i32 %17, 2
  %19 = or disjoint i32 %18, 2
  %20 = zext i32 %19 to i64
  %21 = getelementptr inbounds nuw i8, ptr %4, i64 %20
  %22 = load i8, ptr %21, align 1, !tbaa !34
  %23 = zext i8 %22 to i32
  %24 = or disjoint i32 %18, 1
  %25 = zext i32 %24 to i64
  %26 = getelementptr inbounds nuw i8, ptr %4, i64 %25
  %27 = load i8, ptr %26, align 1, !tbaa !34
  %28 = zext i8 %27 to i32
  %29 = zext i32 %18 to i64
  %30 = getelementptr inbounds nuw i8, ptr %4, i64 %29
  %31 = load i8, ptr %30, align 1, !tbaa !34
  %32 = zext i8 %31 to i32
  br i1 %8, label %.preheader66, label %54

.preheader66:                                     ; preds = %14, %.preheader66
  %.017.i = phi i32 [ %spec.select18.i, %.preheader66 ], [ 0, %14 ]
  %.01116.i = phi i64 [ %53, %.preheader66 ], [ 0, %14 ]
  %.01215.i = phi i32 [ %spec.select.i, %.preheader66 ], [ -1, %14 ]
  %33 = getelementptr inbounds nuw [8 x %struct.color_t], ptr @COLORS, i64 0, i64 %.01116.i
  %34 = load i64, ptr %33, align 16
  %35 = getelementptr inbounds nuw i8, ptr %33, i64 8
  %36 = load i64, ptr %35, align 8
  %.sroa.1.0.extract.shift.i.i = lshr i64 %34, 32
  %.sroa.1.0.extract.trunc.i.i = trunc nuw i64 %.sroa.1.0.extract.shift.i.i to i32
  %.sroa.4.8.extract.trunc.i.i = trunc i64 %36 to i32
  %.sroa.8.8.extract.shift.i.i = lshr i64 %36, 32
  %.sroa.8.8.extract.trunc.i.i = trunc nuw i64 %.sroa.8.8.extract.shift.i.i to i32
  %37 = icmp ugt i32 %23, %.sroa.1.0.extract.trunc.i.i
  %38 = sub nuw nsw i32 %23, %.sroa.1.0.extract.trunc.i.i
  %39 = sub nuw i32 %.sroa.1.0.extract.trunc.i.i, %23
  %40 = select i1 %37, i32 %38, i32 %39
  %41 = icmp ugt i32 %28, %.sroa.4.8.extract.trunc.i.i
  %42 = sub nuw nsw i32 %28, %.sroa.4.8.extract.trunc.i.i
  %43 = sub nuw i32 %.sroa.4.8.extract.trunc.i.i, %28
  %44 = select i1 %41, i32 %42, i32 %43
  %45 = icmp ugt i32 %32, %.sroa.8.8.extract.trunc.i.i
  %46 = sub nuw nsw i32 %32, %.sroa.8.8.extract.trunc.i.i
  %47 = sub nuw i32 %.sroa.8.8.extract.trunc.i.i, %32
  %48 = select i1 %45, i32 %46, i32 %47
  %49 = add i32 %44, %40
  %50 = add i32 %49, %48
  %51 = icmp ult i32 %50, %.01215.i
  %52 = trunc i64 %34 to i32
  %spec.select.i = tail call i32 @llvm.umin.i32(i32 %50, i32 %.01215.i)
  %spec.select18.i = select i1 %51, i32 %52, i32 %.017.i
  %53 = add nuw nsw i64 %.01116.i, 1
  %exitcond.not.i = icmp eq i64 %53, 8
  br i1 %exitcond.not.i, label %get_color.exit, label %.preheader66, !llvm.loop !35

get_color.exit:                                   ; preds = %.preheader66
  tail call void (ptr, ptr, ...) @gvprintf(ptr noundef %0, ptr noundef nonnull @.str.8, i32 noundef %spec.select18.i) #4
  br label %55

54:                                               ; preds = %14
  tail call void (ptr, ptr, ...) @gvprintf(ptr noundef nonnull %0, ptr noundef nonnull @.str.9, i32 noundef %23, i32 noundef %28, i32 noundef %32) #4
  br label %55

55:                                               ; preds = %54, %get_color.exit
  %56 = load i32, ptr %5, align 4, !tbaa !30
  %57 = icmp ult i32 %10, %56
  br i1 %57, label %58, label %77

58:                                               ; preds = %55
  %59 = load i32, ptr %7, align 8, !tbaa !31
  %60 = mul i32 %59, %10
  %61 = add i32 %60, %.05168
  %62 = shl i32 %61, 2
  %63 = or disjoint i32 %62, 2
  %64 = zext i32 %63 to i64
  %65 = getelementptr inbounds nuw i8, ptr %4, i64 %64
  %66 = load i8, ptr %65, align 1, !tbaa !34
  %67 = zext i8 %66 to i32
  %68 = or disjoint i32 %62, 1
  %69 = zext i32 %68 to i64
  %70 = getelementptr inbounds nuw i8, ptr %4, i64 %69
  %71 = load i8, ptr %70, align 1, !tbaa !34
  %72 = zext i8 %71 to i32
  %73 = zext i32 %62 to i64
  %74 = getelementptr inbounds nuw i8, ptr %4, i64 %73
  %75 = load i8, ptr %74, align 1, !tbaa !34
  %76 = zext i8 %75 to i32
  br label %77

77:                                               ; preds = %58, %55
  %.050 = phi i32 [ %67, %58 ], [ 0, %55 ]
  %.049 = phi i32 [ %72, %58 ], [ 0, %55 ]
  %.048 = phi i32 [ %76, %58 ], [ 0, %55 ]
  br i1 %8, label %.preheader, label %99

.preheader:                                       ; preds = %77, %.preheader
  %.017.i54 = phi i32 [ %spec.select18.i63, %.preheader ], [ 0, %77 ]
  %.01116.i55 = phi i64 [ %98, %.preheader ], [ 0, %77 ]
  %.01215.i56 = phi i32 [ %spec.select.i62, %.preheader ], [ -1, %77 ]
  %78 = getelementptr inbounds nuw [8 x %struct.color_t], ptr @COLORS, i64 0, i64 %.01116.i55
  %79 = load i64, ptr %78, align 16
  %80 = getelementptr inbounds nuw i8, ptr %78, i64 8
  %81 = load i64, ptr %80, align 8
  %.sroa.1.0.extract.shift.i.i57 = lshr i64 %79, 32
  %.sroa.1.0.extract.trunc.i.i58 = trunc nuw i64 %.sroa.1.0.extract.shift.i.i57 to i32
  %.sroa.4.8.extract.trunc.i.i59 = trunc i64 %81 to i32
  %.sroa.8.8.extract.shift.i.i60 = lshr i64 %81, 32
  %.sroa.8.8.extract.trunc.i.i61 = trunc nuw i64 %.sroa.8.8.extract.shift.i.i60 to i32
  %82 = icmp ugt i32 %.050, %.sroa.1.0.extract.trunc.i.i58
  %83 = sub nuw nsw i32 %.050, %.sroa.1.0.extract.trunc.i.i58
  %84 = sub nuw i32 %.sroa.1.0.extract.trunc.i.i58, %.050
  %85 = select i1 %82, i32 %83, i32 %84
  %86 = icmp ugt i32 %.049, %.sroa.4.8.extract.trunc.i.i59
  %87 = sub nuw nsw i32 %.049, %.sroa.4.8.extract.trunc.i.i59
  %88 = sub nuw i32 %.sroa.4.8.extract.trunc.i.i59, %.049
  %89 = select i1 %86, i32 %87, i32 %88
  %90 = icmp ugt i32 %.048, %.sroa.8.8.extract.trunc.i.i61
  %91 = sub nuw nsw i32 %.048, %.sroa.8.8.extract.trunc.i.i61
  %92 = sub nuw i32 %.sroa.8.8.extract.trunc.i.i61, %.048
  %93 = select i1 %90, i32 %91, i32 %92
  %94 = add i32 %89, %85
  %95 = add i32 %94, %93
  %96 = icmp ult i32 %95, %.01215.i56
  %97 = trunc i64 %79 to i32
  %spec.select.i62 = tail call i32 @llvm.umin.i32(i32 %95, i32 %.01215.i56)
  %spec.select18.i63 = select i1 %96, i32 %97, i32 %.017.i54
  %98 = add nuw nsw i64 %.01116.i55, 1
  %exitcond.not.i64 = icmp eq i64 %98, 8
  br i1 %exitcond.not.i64, label %get_color.exit65, label %.preheader, !llvm.loop !35

get_color.exit65:                                 ; preds = %.preheader
  tail call void (ptr, ptr, ...) @gvprintf(ptr noundef %0, ptr noundef nonnull @.str.10, i32 noundef %spec.select18.i63) #4
  br label %100

99:                                               ; preds = %77
  tail call void (ptr, ptr, ...) @gvprintf(ptr noundef nonnull %0, ptr noundef nonnull @.str.11, i32 noundef %.050, i32 noundef %.049, i32 noundef %.048) #4
  br label %100

100:                                              ; preds = %99, %get_color.exit65
  tail call void (ptr, ptr, ...) @gvprintf(ptr noundef %0, ptr noundef nonnull @.str.12) #4
  %101 = add nuw i32 %.05168, 1
  %102 = load i32, ptr %7, align 8, !tbaa !31
  %103 = icmp ult i32 %101, %102
  br i1 %103, label %14, label %._crit_edge, !llvm.loop !36
}